#include <math.h>
#include <stdio.h>
#include <stdlib.h>
#include <string.h>

void main()
{
	int a[300],i, j, sum=0, temp;
	char c;
	int n=1;
    for(i=0;;i++)
	{
		scanf("%d",&a[i]);
		if((c=getchar())=='\n')
			break;
	n++;
	}
	if(n==1)
		printf("No");
	else
	{
		for(i=1;i<=n-1;i++)
			sum+=(a[0]-a[i])*(a[0]-a[i]);
		if(sum==0)
			printf("No");
		else
		{
	for(i=0;i<=n-1;i++)
	{
		for(j=0;j<=n-2;j++)
		{
			if(a[j]>=a[j+1])
			{
				temp=a[j];
			a[j]=a[j+1];
			a[j+1]=temp;
			}
		}
	}
		}
	}
	for(i=n-2;i>=0;i--)
	{
		if(a[i]-a[n-1]!=0)
		{
			printf("%d\n",a[i]);
		break;
		}
	}
}