; ModuleID = '22/442.c'
source_filename = "22/442.c"
target datalayout = "e-m:e-p270:32:32-p271:32:32-p272:64:64-i64:64-f80:128-n8:16:32:64-S128"
target triple = "x86_64-pc-linux-gnu"

@.str = private unnamed_addr constant [3 x i8] c"%d\00", align 1
@.str.1 = private unnamed_addr constant [3 x i8] c"No\00", align 1
@.str.2 = private unnamed_addr constant [4 x i8] c"%d\0A\00", align 1

; Function Attrs: noinline nounwind uwtable
define dso_local void @main() #0 {
  %1 = alloca [300 x i32], align 16
  %2 = alloca i32, align 4
  %3 = alloca i32, align 4
  %4 = alloca i32, align 4
  %5 = alloca i32, align 4
  %6 = alloca i8, align 1
  %7 = alloca i32, align 4
  store i32 0, i32* %4, align 4
  store i32 1, i32* %7, align 4
  store i32 0, i32* %2, align 4
  br label %8

8:                                                ; preds = %21, %0
  %9 = load i32, i32* %2, align 4
  %10 = sext i32 %9 to i64
  %11 = getelementptr inbounds [300 x i32], [300 x i32]* %1, i64 0, i64 %10
  %12 = call i32 (i8*, ...) @__isoc99_scanf(i8* getelementptr inbounds ([3 x i8], [3 x i8]* @.str, i64 0, i64 0), i32* %11)
  %13 = call i32 @getchar()
  %14 = trunc i32 %13 to i8
  store i8 %14, i8* %6, align 1
  %15 = sext i8 %14 to i32
  %16 = icmp eq i32 %15, 10
  br i1 %16, label %17, label %18

17:                                               ; preds = %8
  br label %24

18:                                               ; preds = %8
  %19 = load i32, i32* %7, align 4
  %20 = add nsw i32 %19, 1
  store i32 %20, i32* %7, align 4
  br label %21

21:                                               ; preds = %18
  %22 = load i32, i32* %2, align 4
  %23 = add nsw i32 %22, 1
  store i32 %23, i32* %2, align 4
  br label %8

24:                                               ; preds = %17
  %25 = load i32, i32* %7, align 4
  %26 = icmp eq i32 %25, 1
  br i1 %26, label %27, label %29

27:                                               ; preds = %24
  %28 = call i32 (i8*, ...) @printf(i8* getelementptr inbounds ([3 x i8], [3 x i8]* @.str.1, i64 0, i64 0))
  br label %112

29:                                               ; preds = %24
  store i32 1, i32* %2, align 4
  br label %30

30:                                               ; preds = %53, %29
  %31 = load i32, i32* %2, align 4
  %32 = load i32, i32* %7, align 4
  %33 = sub nsw i32 %32, 1
  %34 = icmp sle i32 %31, %33
  br i1 %34, label %35, label %56

35:                                               ; preds = %30
  %36 = getelementptr inbounds [300 x i32], [300 x i32]* %1, i64 0, i64 0
  %37 = load i32, i32* %36, align 16
  %38 = load i32, i32* %2, align 4
  %39 = sext i32 %38 to i64
  %40 = getelementptr inbounds [300 x i32], [300 x i32]* %1, i64 0, i64 %39
  %41 = load i32, i32* %40, align 4
  %42 = sub nsw i32 %37, %41
  %43 = getelementptr inbounds [300 x i32], [300 x i32]* %1, i64 0, i64 0
  %44 = load i32, i32* %43, align 16
  %45 = load i32, i32* %2, align 4
  %46 = sext i32 %45 to i64
  %47 = getelementptr inbounds [300 x i32], [300 x i32]* %1, i64 0, i64 %46
  %48 = load i32, i32* %47, align 4
  %49 = sub nsw i32 %44, %48
  %50 = mul nsw i32 %42, %49
  %51 = load i32, i32* %4, align 4
  %52 = add nsw i32 %51, %50
  store i32 %52, i32* %4, align 4
  br label %53

53:                                               ; preds = %35
  %54 = load i32, i32* %2, align 4
  %55 = add nsw i32 %54, 1
  store i32 %55, i32* %2, align 4
  br label %30

56:                                               ; preds = %30
  %57 = load i32, i32* %4, align 4
  %58 = icmp eq i32 %57, 0
  br i1 %58, label %59, label %61

59:                                               ; preds = %56
  %60 = call i32 (i8*, ...) @printf(i8* getelementptr inbounds ([3 x i8], [3 x i8]* @.str.1, i64 0, i64 0))
  br label %111

61:                                               ; preds = %56
  store i32 0, i32* %2, align 4
  br label %62

62:                                               ; preds = %107, %61
  %63 = load i32, i32* %2, align 4
  %64 = load i32, i32* %7, align 4
  %65 = sub nsw i32 %64, 1
  %66 = icmp sle i32 %63, %65
  br i1 %66, label %67, label %110

67:                                               ; preds = %62
  store i32 0, i32* %3, align 4
  br label %68

68:                                               ; preds = %103, %67
  %69 = load i32, i32* %3, align 4
  %70 = load i32, i32* %7, align 4
  %71 = sub nsw i32 %70, 2
  %72 = icmp sle i32 %69, %71
  br i1 %72, label %73, label %106

73:                                               ; preds = %68
  %74 = load i32, i32* %3, align 4
  %75 = sext i32 %74 to i64
  %76 = getelementptr inbounds [300 x i32], [300 x i32]* %1, i64 0, i64 %75
  %77 = load i32, i32* %76, align 4
  %78 = load i32, i32* %3, align 4
  %79 = add nsw i32 %78, 1
  %80 = sext i32 %79 to i64
  %81 = getelementptr inbounds [300 x i32], [300 x i32]* %1, i64 0, i64 %80
  %82 = load i32, i32* %81, align 4
  %83 = icmp sge i32 %77, %82
  br i1 %83, label %84, label %102

84:                                               ; preds = %73
  %85 = load i32, i32* %3, align 4
  %86 = sext i32 %85 to i64
  %87 = getelementptr inbounds [300 x i32], [300 x i32]* %1, i64 0, i64 %86
  %88 = load i32, i32* %87, align 4
  store i32 %88, i32* %5, align 4
  %89 = load i32, i32* %3, align 4
  %90 = add nsw i32 %89, 1
  %91 = sext i32 %90 to i64
  %92 = getelementptr inbounds [300 x i32], [300 x i32]* %1, i64 0, i64 %91
  %93 = load i32, i32* %92, align 4
  %94 = load i32, i32* %3, align 4
  %95 = sext i32 %94 to i64
  %96 = getelementptr inbounds [300 x i32], [300 x i32]* %1, i64 0, i64 %95
  store i32 %93, i32* %96, align 4
  %97 = load i32, i32* %5, align 4
  %98 = load i32, i32* %3, align 4
  %99 = add nsw i32 %98, 1
  %100 = sext i32 %99 to i64
  %101 = getelementptr inbounds [300 x i32], [300 x i32]* %1, i64 0, i64 %100
  store i32 %97, i32* %101, align 4
  br label %102

102:                                              ; preds = %84, %73
  br label %103

103:                                              ; preds = %102
  %104 = load i32, i32* %3, align 4
  %105 = add nsw i32 %104, 1
  store i32 %105, i32* %3, align 4
  br label %68

106:                                              ; preds = %68
  br label %107

107:                                              ; preds = %106
  %108 = load i32, i32* %2, align 4
  %109 = add nsw i32 %108, 1
  store i32 %109, i32* %2, align 4
  br label %62

110:                                              ; preds = %62
  br label %111

111:                                              ; preds = %110, %59
  br label %112

112:                                              ; preds = %111, %27
  %113 = load i32, i32* %7, align 4
  %114 = sub nsw i32 %113, 2
  store i32 %114, i32* %2, align 4
  br label %115

115:                                              ; preds = %137, %112
  %116 = load i32, i32* %2, align 4
  %117 = icmp sge i32 %116, 0
  br i1 %117, label %118, label %140

118:                                              ; preds = %115
  %119 = load i32, i32* %2, align 4
  %120 = sext i32 %119 to i64
  %121 = getelementptr inbounds [300 x i32], [300 x i32]* %1, i64 0, i64 %120
  %122 = load i32, i32* %121, align 4
  %123 = load i32, i32* %7, align 4
  %124 = sub nsw i32 %123, 1
  %125 = sext i32 %124 to i64
  %126 = getelementptr inbounds [300 x i32], [300 x i32]* %1, i64 0, i64 %125
  %127 = load i32, i32* %126, align 4
  %128 = sub nsw i32 %122, %127
  %129 = icmp ne i32 %128, 0
  br i1 %129, label %130, label %136

130:                                              ; preds = %118
  %131 = load i32, i32* %2, align 4
  %132 = sext i32 %131 to i64
  %133 = getelementptr inbounds [300 x i32], [300 x i32]* %1, i64 0, i64 %132
  %134 = load i32, i32* %133, align 4
  %135 = call i32 (i8*, ...) @printf(i8* getelementptr inbounds ([4 x i8], [4 x i8]* @.str.2, i64 0, i64 0), i32 %134)
  br label %140

136:                                              ; preds = %118
  br label %137

137:                                              ; preds = %136
  %138 = load i32, i32* %2, align 4
  %139 = add nsw i32 %138, -1
  store i32 %139, i32* %2, align 4
  br label %115

140:                                              ; preds = %130, %115
  ret void
}

declare dso_local i32 @__isoc99_scanf(i8*, ...) #1

declare dso_local i32 @getchar() #1

declare dso_local i32 @printf(i8*, ...) #1


!llvm.module.flags = !{!0}
!llvm.ident = !{!1}

!0 = !{i32 1, !"wchar_size", i32 4}
!1 = !{!"clang version 10.0.0-4ubuntu1 "}
